target datalayout = "e-m:e-p270:32:32-p271:32:32-p272:64:64-i64:64-i128:128-f80:128-n8:16:32:64-S128"
target triple = "x86_64-unknown-linux-gnu"

%"class.rocksdb::Slice" = type { ptr, i64 }
%"class.rocksdb::(anonymous namespace)::LegacyBloomBitsReader" = type <{ %"class.rocksdb::BuiltinFilterBitsReader", ptr, i32, i32, i32, [4 x i8] }>
%"class.rocksdb::BuiltinFilterBitsReader" = type { %"class.rocksdb::FilterBitsReader" }
%"class.rocksdb::FilterBitsReader" = type { ptr }
%"struct.std::array.177" = type { [32 x i32] }

; Function Attrs: mustprogress nounwind uwtable
define linkonce_odr noundef i32 @_ZN7rocksdb23LegacyLocalityBloomImplILb0EE7GetLineEjj(i32 noundef %h, i32 noundef %num_lines) #1 comdat align 2 {
entry:
  %h.addr = alloca i32, align 4
  %num_lines.addr = alloca i32, align 4
  %offset_h = alloca i32, align 4
  store i32 %h, ptr %h.addr, align 4
  store i32 %num_lines, ptr %num_lines.addr, align 4
  %0 = load i32, ptr %h.addr, align 4
  store i32 %0, ptr %offset_h, align 4
  %1 = load i32, ptr %offset_h, align 4
  %2 = load i32, ptr %num_lines.addr, align 4
  %rem = urem i32 %1, %2
  ret i32 %rem
}

; Function Attrs: mustprogress nounwind uwtable
define linkonce_odr noundef nonnull align 4 dereferenceable(4) ptr @_ZNSt14__array_traitsIjLm32EE6_S_refERA32_Kjm(ptr noundef nonnull align 4 dereferenceable(128) %__t, i64 noundef %__n) #1 comdat align 2 {
entry:
  %__t.addr = alloca ptr, align 8
  %__n.addr = alloca i64, align 8
  store ptr %__t, ptr %__t.addr, align 8
  store i64 %__n, ptr %__n.addr, align 8
  %0 = load ptr, ptr %__t.addr, align 8
  %1 = load i64, ptr %__n.addr, align 8
  %arrayidx = getelementptr inbounds [32 x i32], ptr %0, i64 0, i64 %1
  ret ptr %arrayidx
}

; Function Attrs: mustprogress nounwind uwtable
define linkonce_odr noundef i64 @_ZNK7rocksdb5Slice4sizeEv(ptr noundef nonnull align 8 dereferenceable(16) %this) #1 comdat align 2 {
entry:
  %this.addr = alloca ptr, align 8
  store ptr %this, ptr %this.addr, align 8
  %this1 = load ptr, ptr %this.addr, align 8
  %size_ = getelementptr inbounds %"class.rocksdb::Slice", ptr %this1, i32 0, i32 1
  %0 = load i64, ptr %size_, align 8
  ret i64 %0
}

; Function Attrs: mustprogress nounwind uwtable
define linkonce_odr noundef ptr @_ZNK7rocksdb5Slice4dataEv(ptr noundef nonnull align 8 dereferenceable(16) %this) #1 comdat align 2 {
entry:
  %this.addr = alloca ptr, align 8
  store ptr %this, ptr %this.addr, align 8
  %this1 = load ptr, ptr %this.addr, align 8
  %data_ = getelementptr inbounds %"class.rocksdb::Slice", ptr %this1, i32 0, i32 0
  %0 = load ptr, ptr %data_, align 8
  ret ptr %0
}

; Function Attrs: mustprogress nounwind uwtable
define linkonce_odr noundef zeroext i1 @_ZN7rocksdb23LegacyLocalityBloomImplILb0EE20HashMayMatchPreparedEjiPKci(i32 noundef %h, i32 noundef %num_probes, ptr noundef %data_at_offset, i32 noundef %log2_cache_line_bytes) #1 comdat align 2 {
entry:
  %retval = alloca i1, align 1
  %h.addr = alloca i32, align 4
  %num_probes.addr = alloca i32, align 4
  %data_at_offset.addr = alloca ptr, align 8
  %log2_cache_line_bytes.addr = alloca i32, align 4
  %log2_cache_line_bits = alloca i32, align 4
  %delta = alloca i32, align 4
  %i = alloca i32, align 4
  %bitpos = alloca i32, align 4
  store i32 %h, ptr %h.addr, align 4
  store i32 %num_probes, ptr %num_probes.addr, align 4
  store ptr %data_at_offset, ptr %data_at_offset.addr, align 8
  store i32 %log2_cache_line_bytes, ptr %log2_cache_line_bytes.addr, align 4
  %0 = load i32, ptr %log2_cache_line_bytes.addr, align 4
  %add = add nsw i32 %0, 3
  store i32 %add, ptr %log2_cache_line_bits, align 4
  %1 = load i32, ptr %h.addr, align 4
  %shr = lshr i32 %1, 17
  %2 = load i32, ptr %h.addr, align 4
  %shl = shl i32 %2, 15
  %or = or i32 %shr, %shl
  store i32 %or, ptr %delta, align 4
  store i32 0, ptr %i, align 4
  br label %for.cond

for.cond:                                         ; preds = %for.inc, %entry
  %3 = load i32, ptr %i, align 4
  %4 = load i32, ptr %num_probes.addr, align 4
  %cmp = icmp slt i32 %3, %4
  br i1 %cmp, label %for.body, label %for.end

for.body:                                         ; preds = %for.cond
  %5 = load i32, ptr %h.addr, align 4
  %6 = load i32, ptr %log2_cache_line_bits, align 4
  %shl1 = shl i32 1, %6
  %sub = sub nsw i32 %shl1, 1
  %and = and i32 %5, %sub
  store i32 %and, ptr %bitpos, align 4
  %7 = load ptr, ptr %data_at_offset.addr, align 8
  %8 = load i32, ptr %bitpos, align 4
  %div = udiv i32 %8, 8
  %idxprom = zext i32 %div to i64
  %arrayidx = getelementptr inbounds i8, ptr %7, i64 %idxprom
  %9 = load i8, ptr %arrayidx, align 1
  %conv = sext i8 %9 to i32
  %10 = load i32, ptr %bitpos, align 4
  %rem = urem i32 %10, 8
  %shl2 = shl i32 1, %rem
  %and3 = and i32 %conv, %shl2
  %cmp4 = icmp eq i32 %and3, 0
  br i1 %cmp4, label %if.then, label %if.end

if.then:                                          ; preds = %for.body
  store i1 false, ptr %retval, align 1
  br label %return

if.end:                                           ; preds = %for.body
  %11 = load i32, ptr %delta, align 4
  %12 = load i32, ptr %h.addr, align 4
  %add5 = add i32 %12, %11
  store i32 %add5, ptr %h.addr, align 4
  br label %for.inc

for.inc:                                          ; preds = %if.end
  %13 = load i32, ptr %i, align 4
  %inc = add nsw i32 %13, 1
  store i32 %inc, ptr %i, align 4
  br label %for.cond, !llvm.loop !38

for.end:                                          ; preds = %for.cond
  store i1 true, ptr %retval, align 1
  br label %return

return:                                           ; preds = %for.end, %if.then
  %14 = load i1, ptr %retval, align 1
  ret i1 %14
}

; Function Attrs: mustprogress nounwind uwtable
define linkonce_odr void @_ZN7rocksdb23LegacyLocalityBloomImplILb0EE19PrepareHashMayMatchEjjPKcPji(i32 noundef %h, i32 noundef %num_lines, ptr noundef %data, ptr noundef %byte_offset, i32 noundef %log2_cache_line_bytes) #1 comdat align 2 {
entry:
  %h.addr = alloca i32, align 4
  %num_lines.addr = alloca i32, align 4
  %data.addr = alloca ptr, align 8
  %byte_offset.addr = alloca ptr, align 8
  %log2_cache_line_bytes.addr = alloca i32, align 4
  %b = alloca i32, align 4
  store i32 %h, ptr %h.addr, align 4
  store i32 %num_lines, ptr %num_lines.addr, align 4
  store ptr %data, ptr %data.addr, align 8
  store ptr %byte_offset, ptr %byte_offset.addr, align 8
  store i32 %log2_cache_line_bytes, ptr %log2_cache_line_bytes.addr, align 4
  %0 = load i32, ptr %h.addr, align 4
  %1 = load i32, ptr %num_lines.addr, align 4
  %call = call noundef i32 @_ZN7rocksdb23LegacyLocalityBloomImplILb0EE7GetLineEjj(i32 noundef %0, i32 noundef %1)
  %2 = load i32, ptr %log2_cache_line_bytes.addr, align 4
  %shl = shl i32 %call, %2
  store i32 %shl, ptr %b, align 4
  %3 = load ptr, ptr %data.addr, align 8
  %4 = load i32, ptr %b, align 4
  %idx.ext = zext i32 %4 to i64
  %add.ptr = getelementptr inbounds i8, ptr %3, i64 %idx.ext
  call void @llvm.prefetch.p0(ptr %add.ptr, i32 0, i32 1, i32 1)
  %5 = load ptr, ptr %data.addr, align 8
  %6 = load i32, ptr %b, align 4
  %idx.ext1 = zext i32 %6 to i64
  %add.ptr2 = getelementptr inbounds i8, ptr %5, i64 %idx.ext1
  %7 = load i32, ptr %log2_cache_line_bytes.addr, align 4
  %shl3 = shl i32 1, %7
  %sub = sub nsw i32 %shl3, 1
  %idx.ext4 = sext i32 %sub to i64
  %add.ptr5 = getelementptr inbounds i8, ptr %add.ptr2, i64 %idx.ext4
  call void @llvm.prefetch.p0(ptr %add.ptr5, i32 0, i32 1, i32 1)
  %8 = load i32, ptr %b, align 4
  %9 = load ptr, ptr %byte_offset.addr, align 8
  store i32 %8, ptr %9, align 4
  ret void
}

; Function Attrs: mustprogress nounwind uwtable
define linkonce_odr noundef nonnull align 4 dereferenceable(4) ptr @_ZNSt5arrayIjLm32EEixEm(ptr noundef nonnull align 4 dereferenceable(128) %this, i64 noundef %__n) #1 comdat align 2 {
entry:
  %this.addr = alloca ptr, align 8
  %__n.addr = alloca i64, align 8
  store ptr %this, ptr %this.addr, align 8
  store i64 %__n, ptr %__n.addr, align 8
  %this1 = load ptr, ptr %this.addr, align 8
  %_M_elems = getelementptr inbounds %"struct.std::array.177", ptr %this1, i32 0, i32 0
  %0 = load i64, ptr %__n.addr, align 8
  %call = call noundef nonnull align 4 dereferenceable(4) ptr @_ZNSt14__array_traitsIjLm32EE6_S_refERA32_Kjm(ptr noundef nonnull align 4 dereferenceable(128) %_M_elems, i64 noundef %0) #3
  ret ptr %call
}

; Function Attrs: mustprogress uwtable
define linkonce_odr noundef i32 @_ZN7rocksdb9BloomHashERKNS_5SliceE(ptr noundef nonnull align 8 dereferenceable(16) %key) #0 comdat {
entry:
  %key.addr = alloca ptr, align 8
  store ptr %key, ptr %key.addr, align 8
  %0 = load ptr, ptr %key.addr, align 8
  %call = call noundef ptr @_ZNK7rocksdb5Slice4dataEv(ptr noundef nonnull align 8 dereferenceable(16) %0)
  %1 = load ptr, ptr %key.addr, align 8
  %call1 = call noundef i64 @_ZNK7rocksdb5Slice4sizeEv(ptr noundef nonnull align 8 dereferenceable(16) %1)
  %call2 = call noundef i32 @_ZN7rocksdb4HashEPKcmj(ptr noundef %call, i64 noundef %call1, i32 noundef -1130422988)
  ret i32 %call2
}

; Function Attrs: mustprogress uwtable
define internal void @_ZN7rocksdb12_GLOBAL__N_121LegacyBloomBitsReader8MayMatchEiPPNS_5SliceEPb(ptr noundef nonnull align 8 dereferenceable(28) %this, i32 noundef %num_keys, ptr noundef %keys, ptr noundef %may_match) unnamed_addr #0 align 2 {
entry:
  %this.addr = alloca ptr, align 8
  %num_keys.addr = alloca i32, align 4
  %keys.addr = alloca ptr, align 8
  %may_match.addr = alloca ptr, align 8
  %hashes = alloca %"struct.std::array.177", align 4
  %byte_offsets = alloca %"struct.std::array.177", align 4
  %i = alloca i32, align 4
  %i7 = alloca i32, align 4
  store ptr %this, ptr %this.addr, align 8
  store i32 %num_keys, ptr %num_keys.addr, align 4
  store ptr %keys, ptr %keys.addr, align 8
  store ptr %may_match, ptr %may_match.addr, align 8
  %this1 = load ptr, ptr %this.addr, align 8
  store i32 0, ptr %i, align 4
  br label %for.cond

for.cond:                                         ; preds = %for.inc, %entry
  %0 = load i32, ptr %i, align 4
  %1 = load i32, ptr %num_keys.addr, align 4
  %cmp = icmp slt i32 %0, %1
  br i1 %cmp, label %for.body, label %for.end

for.body:                                         ; preds = %for.cond
  %2 = load ptr, ptr %keys.addr, align 8
  %3 = load i32, ptr %i, align 4
  %idxprom = sext i32 %3 to i64
  %arrayidx = getelementptr inbounds ptr, ptr %2, i64 %idxprom
  %4 = load ptr, ptr %arrayidx, align 8
  %call = call noundef i32 @_ZN7rocksdb9BloomHashERKNS_5SliceE(ptr noundef nonnull align 8 dereferenceable(16) %4)
  %5 = load i32, ptr %i, align 4
  %conv = sext i32 %5 to i64
  %call2 = call noundef nonnull align 4 dereferenceable(4) ptr @_ZNSt5arrayIjLm32EEixEm(ptr noundef nonnull align 4 dereferenceable(128) %hashes, i64 noundef %conv) #3
  store i32 %call, ptr %call2, align 4
  %6 = load i32, ptr %i, align 4
  %conv3 = sext i32 %6 to i64
  %call4 = call noundef nonnull align 4 dereferenceable(4) ptr @_ZNSt5arrayIjLm32EEixEm(ptr noundef nonnull align 4 dereferenceable(128) %hashes, i64 noundef %conv3) #3
  %7 = load i32, ptr %call4, align 4
  %num_lines_ = getelementptr inbounds %"class.rocksdb::(anonymous namespace)::LegacyBloomBitsReader", ptr %this1, i32 0, i32 3
  %8 = load i32, ptr %num_lines_, align 4
  %data_ = getelementptr inbounds %"class.rocksdb::(anonymous namespace)::LegacyBloomBitsReader", ptr %this1, i32 0, i32 1
  %9 = load ptr, ptr %data_, align 8
  %10 = load i32, ptr %i, align 4
  %conv5 = sext i32 %10 to i64
  %call6 = call noundef nonnull align 4 dereferenceable(4) ptr @_ZNSt5arrayIjLm32EEixEm(ptr noundef nonnull align 4 dereferenceable(128) %byte_offsets, i64 noundef %conv5) #3
  %log2_cache_line_size_ = getelementptr inbounds %"class.rocksdb::(anonymous namespace)::LegacyBloomBitsReader", ptr %this1, i32 0, i32 4
  %11 = load i32, ptr %log2_cache_line_size_, align 8
  call void @_ZN7rocksdb23LegacyLocalityBloomImplILb0EE19PrepareHashMayMatchEjjPKcPji(i32 noundef %7, i32 noundef %8, ptr noundef %9, ptr noundef %call6, i32 noundef %11)
  br label %for.inc

for.inc:                                          ; preds = %for.body
  %12 = load i32, ptr %i, align 4
  %inc = add nsw i32 %12, 1
  store i32 %inc, ptr %i, align 4
  br label %for.cond, !llvm.loop !36

for.end:                                          ; preds = %for.cond
  store i32 0, ptr %i7, align 4
  br label %for.cond8

for.cond8:                                        ; preds = %for.inc20, %for.end
  %13 = load i32, ptr %i7, align 4
  %14 = load i32, ptr %num_keys.addr, align 4
  %cmp9 = icmp slt i32 %13, %14
  br i1 %cmp9, label %for.body10, label %for.end22

for.body10:                                       ; preds = %for.cond8
  %15 = load i32, ptr %i7, align 4
  %conv11 = sext i32 %15 to i64
  %call12 = call noundef nonnull align 4 dereferenceable(4) ptr @_ZNSt5arrayIjLm32EEixEm(ptr noundef nonnull align 4 dereferenceable(128) %hashes, i64 noundef %conv11) #3
  %16 = load i32, ptr %call12, align 4
  %num_probes_ = getelementptr inbounds %"class.rocksdb::(anonymous namespace)::LegacyBloomBitsReader", ptr %this1, i32 0, i32 2
  %17 = load i32, ptr %num_probes_, align 8
  %data_13 = getelementptr inbounds %"class.rocksdb::(anonymous namespace)::LegacyBloomBitsReader", ptr %this1, i32 0, i32 1
  %18 = load ptr, ptr %data_13, align 8
  %19 = load i32, ptr %i7, align 4
  %conv14 = sext i32 %19 to i64
  %call15 = call noundef nonnull align 4 dereferenceable(4) ptr @_ZNSt5arrayIjLm32EEixEm(ptr noundef nonnull align 4 dereferenceable(128) %byte_offsets, i64 noundef %conv14) #3
  %20 = load i32, ptr %call15, align 4
  %idx.ext = zext i32 %20 to i64
  %add.ptr = getelementptr inbounds i8, ptr %18, i64 %idx.ext
  %log2_cache_line_size_16 = getelementptr inbounds %"class.rocksdb::(anonymous namespace)::LegacyBloomBitsReader", ptr %this1, i32 0, i32 4
  %21 = load i32, ptr %log2_cache_line_size_16, align 8
  %call17 = call noundef zeroext i1 @_ZN7rocksdb23LegacyLocalityBloomImplILb0EE20HashMayMatchPreparedEjiPKci(i32 noundef %16, i32 noundef %17, ptr noundef %add.ptr, i32 noundef %21)
  %22 = load ptr, ptr %may_match.addr, align 8
  %23 = load i32, ptr %i7, align 4
  %idxprom18 = sext i32 %23 to i64
  %arrayidx19 = getelementptr inbounds i8, ptr %22, i64 %idxprom18
  %frombool = zext i1 %call17 to i8
  store i8 %frombool, ptr %arrayidx19, align 1
  br label %for.inc20

for.inc20:                                        ; preds = %for.body10
  %24 = load i32, ptr %i7, align 4
  %inc21 = add nsw i32 %24, 1
  store i32 %inc21, ptr %i7, align 4
  br label %for.cond8, !llvm.loop !37

for.end22:                                        ; preds = %for.cond8
  ret void
}