; Function Attrs: mustprogress uwtable
define internal void @_ZN7rocksdb12_GLOBAL__N_121LegacyBloomBitsReader8MayMatchEiPPNS_5SliceEPb(ptr nocapture noundef nonnull readonly align 8 dereferenceable(28) %this, i32 noundef %num_keys, ptr nocapture noundef readonly %keys, ptr nocapture noundef writeonly %may_match) unnamed_addr #3 align 2 {
entry:
  %hashes = alloca %"struct.std::array.177", align 4
  %byte_offsets = alloca %"struct.std::array.177", align 4
  %cmp17 = icmp sgt i32 %num_keys, 0
  br i1 %cmp17, label %for.body.lr.ph, label %for.end22

for.body.lr.ph:                                   ; preds = %entry
  %num_lines_ = getelementptr inbounds i8, ptr %this, i64 20
  %data_ = getelementptr inbounds i8, ptr %this, i64 8
  %log2_cache_line_size_ = getelementptr inbounds i8, ptr %this, i64 24
  %wide.trip.count = zext nneg i32 %num_keys to i64
  br label %for.body

for.cond8.preheader:                              ; preds = %for.body
  br i1 %cmp17, label %for.body10.lr.ph, label %for.end22

for.body10.lr.ph:                                 ; preds = %for.cond8.preheader
  %num_probes_ = getelementptr inbounds i8, ptr %this, i64 16
  %data_13 = getelementptr inbounds i8, ptr %this, i64 8
  %log2_cache_line_size_16 = getelementptr inbounds i8, ptr %this, i64 24
  %wide.trip.count37 = zext nneg i32 %num_keys to i64
  br label %for.body10

for.body:                                         ; preds = %for.body.lr.ph, %for.body
  %indvars.iv = phi i64 [ 0, %for.body.lr.ph ], [ %indvars.iv.next, %for.body ]
  %arrayidx = getelementptr inbounds ptr, ptr %keys, i64 %indvars.iv
  %0 = load ptr, ptr %arrayidx, align 8
  %1 = load ptr, ptr %0, align 8
  %size_.i.i = getelementptr inbounds i8, ptr %0, i64 8
  %2 = load i64, ptr %size_.i.i, align 8
  %call2.i = tail call noundef i32 @_ZN7rocksdb4HashEPKcmj(ptr noundef %1, i64 noundef %2, i32 noundef -1130422988)
  %arrayidx.i.i = getelementptr inbounds [32 x i32], ptr %hashes, i64 0, i64 %indvars.iv
  store i32 %call2.i, ptr %arrayidx.i.i, align 4
  %3 = load i32, ptr %num_lines_, align 4
  %4 = load ptr, ptr %data_, align 8
  %arrayidx.i.i12 = getelementptr inbounds [32 x i32], ptr %byte_offsets, i64 0, i64 %indvars.iv
  %5 = load i32, ptr %log2_cache_line_size_, align 8
  %rem.i.i = urem i32 %call2.i, %3
  %shl.i = shl i32 %rem.i.i, %5
  %idx.ext.i = zext i32 %shl.i to i64
  %add.ptr.i = getelementptr inbounds i8, ptr %4, i64 %idx.ext.i
  tail call void @llvm.prefetch.p0(ptr %add.ptr.i, i32 0, i32 1, i32 1)
  %notmask.i = shl nsw i32 -1, %5
  %sub.i = xor i32 %notmask.i, -1
  %idx.ext4.i = zext nneg i32 %sub.i to i64
  %add.ptr5.i = getelementptr inbounds i8, ptr %add.ptr.i, i64 %idx.ext4.i
  tail call void @llvm.prefetch.p0(ptr %add.ptr5.i, i32 0, i32 1, i32 1)
  store i32 %shl.i, ptr %arrayidx.i.i12, align 4
  %indvars.iv.next = add nuw nsw i64 %indvars.iv, 1
  %exitcond.not = icmp eq i64 %indvars.iv.next, %wide.trip.count
  br i1 %exitcond.not, label %for.cond8.preheader, label %for.body, !llvm.loop !149

for.body10:                                       ; preds = %for.body10.lr.ph, %_ZN7rocksdb23LegacyLocalityBloomImplILb0EE20HashMayMatchPreparedEjiPKci.exit
  %indvars.iv34 = phi i64 [ 0, %for.body10.lr.ph ], [ %indvars.iv.next35, %_ZN7rocksdb23LegacyLocalityBloomImplILb0EE20HashMayMatchPreparedEjiPKci.exit ]
  %arrayidx.i.i13 = getelementptr inbounds [32 x i32], ptr %hashes, i64 0, i64 %indvars.iv34
  %6 = load i32, ptr %arrayidx.i.i13, align 4
  %7 = load i32, ptr %num_probes_, align 8
  %8 = load ptr, ptr %data_13, align 8
  %arrayidx.i.i14 = getelementptr inbounds [32 x i32], ptr %byte_offsets, i64 0, i64 %indvars.iv34
  %9 = load i32, ptr %arrayidx.i.i14, align 4
  %idx.ext = zext i32 %9 to i64
  %add.ptr = getelementptr inbounds i8, ptr %8, i64 %idx.ext
  %10 = load i32, ptr %log2_cache_line_size_16, align 8
  %add.i = add nsw i32 %10, 3
  %or.i = tail call i32 @llvm.fshl.i32(i32 %6, i32 %6, i32 15)
  %notmask.i15 = shl nsw i32 -1, %add.i
  %sub.i16 = xor i32 %notmask.i15, -1
  %cmp7.i = icmp slt i32 %7, 1
  br i1 %cmp7.i, label %_ZN7rocksdb23LegacyLocalityBloomImplILb0EE20HashMayMatchPreparedEjiPKci.exit, label %for.body.i.preheader

for.body.i.preheader:                             ; preds = %for.body10
  %and.i19 = and i32 %6, %sub.i16
  %div6.i20 = lshr i32 %and.i19, 3
  %idxprom.i21 = zext nneg i32 %div6.i20 to i64
  %arrayidx.i22 = getelementptr inbounds i8, ptr %add.ptr, i64 %idxprom.i21
  %11 = load i8, ptr %arrayidx.i22, align 1
  %conv12.i23 = zext i8 %11 to i32
  %rem.i24 = and i32 %and.i19, 7
  %shl2.i25 = shl nuw nsw i32 1, %rem.i24
  %and3.i26 = and i32 %shl2.i25, %conv12.i23
  %cmp4.i27 = icmp eq i32 %and3.i26, 0
  br i1 %cmp4.i27, label %_ZN7rocksdb23LegacyLocalityBloomImplILb0EE20HashMayMatchPreparedEjiPKci.exit, label %if.end.i

for.body.i:                                       ; preds = %if.end.i
  %add5.i = add i32 %h.addr.08.i29, %or.i
  %and.i = and i32 %add5.i, %sub.i16
  %div6.i = lshr i32 %and.i, 3
  %idxprom.i = zext nneg i32 %div6.i to i64
  %arrayidx.i = getelementptr inbounds i8, ptr %add.ptr, i64 %idxprom.i
  %12 = load i8, ptr %arrayidx.i, align 1
  %conv12.i = zext i8 %12 to i32
  %rem.i = and i32 %and.i, 7
  %shl2.i = shl nuw nsw i32 1, %rem.i
  %and3.i = and i32 %shl2.i, %conv12.i
  %cmp4.i = icmp eq i32 %and3.i, 0
  br i1 %cmp4.i, label %_ZN7rocksdb23LegacyLocalityBloomImplILb0EE20HashMayMatchPreparedEjiPKci.exit.loopexit, label %if.end.i, !llvm.loop !148

if.end.i:                                         ; preds = %for.body.i.preheader, %for.body.i
  %h.addr.08.i29 = phi i32 [ %add5.i, %for.body.i ], [ %6, %for.body.i.preheader ]
  %i.09.i28 = phi i32 [ %inc.i, %for.body.i ], [ 0, %for.body.i.preheader ]
  %inc.i = add nuw nsw i32 %i.09.i28, 1
  %exitcond.i = icmp eq i32 %inc.i, %7
  br i1 %exitcond.i, label %_ZN7rocksdb23LegacyLocalityBloomImplILb0EE20HashMayMatchPreparedEjiPKci.exit.loopexit, label %for.body.i, !llvm.loop !148

_ZN7rocksdb23LegacyLocalityBloomImplILb0EE20HashMayMatchPreparedEjiPKci.exit.loopexit: ; preds = %for.body.i, %if.end.i
  %cmp.i.le = icmp sge i32 %inc.i, %7
  br label %_ZN7rocksdb23LegacyLocalityBloomImplILb0EE20HashMayMatchPreparedEjiPKci.exit

_ZN7rocksdb23LegacyLocalityBloomImplILb0EE20HashMayMatchPreparedEjiPKci.exit: ; preds = %_ZN7rocksdb23LegacyLocalityBloomImplILb0EE20HashMayMatchPreparedEjiPKci.exit.loopexit, %for.body.i.preheader, %for.body10
  %cmp.lcssa.i = phi i1 [ true, %for.body10 ], [ false, %for.body.i.preheader ], [ %cmp.i.le, %_ZN7rocksdb23LegacyLocalityBloomImplILb0EE20HashMayMatchPreparedEjiPKci.exit.loopexit ]
  %arrayidx19 = getelementptr inbounds i8, ptr %may_match, i64 %indvars.iv34
  %frombool = zext i1 %cmp.lcssa.i to i8
  store i8 %frombool, ptr %arrayidx19, align 1
  %indvars.iv.next35 = add nuw nsw i64 %indvars.iv34, 1
  %exitcond38.not = icmp eq i64 %indvars.iv.next35, %wide.trip.count37
  br i1 %exitcond38.not, label %for.end22, label %for.body10, !llvm.loop !150

for.end22:                                        ; preds = %_ZN7rocksdb23LegacyLocalityBloomImplILb0EE20HashMayMatchPreparedEjiPKci.exit, %entry, %for.cond8.preheader
  ret void
}